(dp0
S'METTS MARK'
p1
(dp2
S'to_messages'
p3
F807.0
sS'deferral_payments'
p4
F0.0
sS'expenses'
p5
F94299.0
sS'convo_with_poi'
p6
F0.0012391573729863693
sS'poi'
p7
I00
sS'long_term_incentive'
p8
F0.0
sS'email_address'
p9
S'mark.metts@enron.com'
p10
sS'from_poi_to_this_person'
p11
F38.0
sS'deferred_income'
p12
F0.0
sS'restricted_stock_deferred'
p13
F0.0
sS'shared_receipt_with_poi'
p14
F702.0
sS'loan_advances'
p15
F0.0
sS'from_messages'
p16
F29.0
sS'other'
p17
F1740.0
sS'director_fees'
p18
F0.0
sS'bonus'
p19
F600000.0
sS'total_stock_value'
p20
F585062.0
sS'from_this_person_to_poi'
p21
F1.0
sS'restricted_stock'
p22
F585062.0
sS'salary'
p23
F365788.0
sS'total_payments'
p24
F1061827.0
sS'exercised_stock_options'
p25
F0.0
ssS'BAXTER JOHN C'
p26
(dp27
g3
F0.0
sg4
F1295738.0
sg5
F11200.0
sg6
F0.0
sg7
I00
sg8
F1586055.0
sg9
I0
sg11
F0.0
sg12
F-1386055.0
sg13
F0.0
sg14
F0.0
sg15
F0.0
sg16
F0.0
sg17
F2660303.0
sg18
F0.0
sg19
F1200000.0
sg20
F10623258.0
sg21
F0.0
sg22
F3942714.0
sg23
F267102.0
sg24
F5634343.0
sg25
F6680544.0
ssS'ELLIOTT STEVEN'
p28
(dp29
g3
F0.0
sg4
F0.0
sg5
F78552.0
sg6
F0.0
sg7
I00
sg8
F0.0
sg9
S'steven.elliott@enron.com'
p30
sg11
F0.0
sg12
F-400729.0
sg13
F0.0
sg14
F0.0
sg15
F0.0
sg16
F0.0
sg17
F12961.0
sg18
F0.0
sg19
F350000.0
sg20
F6678735.0
sg21
F0.0
sg22
F1788391.0
sg23
F170941.0
sg24
F211725.0
sg25
F4890344.0
ssS'CORDES WILLIAM R'
p31
(dp32
g3
F764.0
sg4
F0.0
sg5
F0.0
sg6
F0.0
sg7
I00
sg8
F0.0
sg9
S'bill.cordes@enron.com'
p33
sg11
F10.0
sg12
F0.0
sg13
F0.0
sg14
F58.0
sg15
F0.0
sg16
F12.0
sg17
F0.0
sg18
F0.0
sg19
F0.0
sg20
F1038185.0
sg21
F0.0
sg22
F386335.0
sg23
F0.0
sg24
F0.0
sg25
F651850.0
ssS'HANNON KEVIN P'
p34
(dp35
g3
F1045.0
sg4
F0.0
sg5
F34039.0
sg6
F0.020095693779904306
sg7
I01
sg8
F1617011.0
sg9
S'kevin.hannon@enron.com'
p36
sg11
F32.0
sg12
F-3117011.0
sg13
F0.0
sg14
F1035.0
sg15
F0.0
sg16
F32.0
sg17
F11350.0
sg18
F0.0
sg19
F1500000.0
sg20
F6391065.0
sg21
F21.0
sg22
F853064.0
sg23
F243293.0
sg24
F288682.0
sg25
F5538001.0
ssS'MORDAUNT KRISTINA M'
p37
(dp38
g3
F0.0
sg4
F0.0
sg5
F35018.0
sg6
F0.0
sg7
I00
sg8
F0.0
sg9
S'kristina.mordaunt@enron.com'
p39
sg11
F0.0
sg12
F0.0
sg13
F0.0
sg14
F0.0
sg15
F0.0
sg16
F0.0
sg17
F1411.0
sg18
F0.0
sg19
F325000.0
sg20
F208510.0
sg21
F0.0
sg22
F208510.0
sg23
F267093.0
sg24
F628522.0
sg25
F0.0
ssS'MEYER ROCKFORD G'
p40
(dp41
g3
F232.0
sg4
F1848227.0
sg5
F0.0
sg6
F0.0
sg7
I00
sg8
F0.0
sg9
S'rockford.meyer@enron.com'
p42
sg11
F0.0
sg12
F0.0
sg13
F0.0
sg14
F22.0
sg15
F0.0
sg16
F28.0
sg17
F0.0
sg18
F0.0
sg19
F0.0
sg20
F955873.0
sg21
F0.0
sg22
F462384.0
sg23
F0.0
sg24
F1848227.0
sg25
F493489.0
ssS'MCMAHON JEFFREY'
p43
(dp44
g3
F2355.0
sg4
F0.0
sg5
F137108.0
sg6
F0.011040339702760084
sg7
I00
sg8
F694862.0
sg9
S'jeffrey.mcmahon@enron.com'
p45
sg11
F58.0
sg12
F0.0
sg13
F0.0
sg14
F2228.0
sg15
F0.0
sg16
F48.0
sg17
F297353.0
sg18
F0.0
sg19
F2600000.0
sg20
F1662855.0
sg21
F26.0
sg22
F558801.0
sg23
F370448.0
sg24
F4099771.0
sg25
F1104054.0
ssS'HAEDICKE MARK E'
p46
(dp47
g3
F4009.0
sg4
F2157527.0
sg5
F76169.0
sg6
F0.015215764529807932
sg7
I00
sg8
F983346.0
sg9
S'mark.haedicke@enron.com'
p48
sg11
F180.0
sg12
F-934484.0
sg13
F-329825.0
sg14
F1847.0
sg15
F0.0
sg16
F1941.0
sg17
F52382.0
sg18
F0.0
sg19
F1150000.0
sg20
F803094.0
sg21
F61.0
sg22
F524169.0
sg23
F374125.0
sg24
F3859065.0
sg25
F608750.0
ssS'PIPER GREGORY F'
p49
(dp50
g3
F1238.0
sg4
F1130036.0
sg5
F43057.0
sg6
F0.03877221324717286
sg7
I00
sg8
F0.0
sg9
S'greg.piper@enron.com'
p51
sg11
F61.0
sg12
F-33333.0
sg13
F-409554.0
sg14
F742.0
sg15
F0.0
sg16
F222.0
sg17
F778.0
sg18
F0.0
sg19
F400000.0
sg20
F880290.0
sg21
F48.0
sg22
F409554.0
sg23
F197091.0
sg24
F1737629.0
sg25
F880290.0
ssS'HUMPHREY GENE E'
p52
(dp53
g3
F128.0
sg4
F2964506.0
sg5
F4994.0
sg6
F0.1328125
sg7
I00
sg8
F0.0
sg9
S'gene.humphrey@enron.com'
p54
sg11
F10.0
sg12
F0.0
sg13
F0.0
sg14
F119.0
sg15
F0.0
sg16
F17.0
sg17
F0.0
sg18
F0.0
sg19
F0.0
sg20
F2282768.0
sg21
F17.0
sg22
F0.0
sg23
F130724.0
sg24
F3100224.0
sg25
F2282768.0
ssS'NOLES JAMES L'
p55
(dp56
g3
F0.0
sg4
F774401.0
sg5
F0.0
sg6
F0.0
sg7
I00
sg8
F0.0
sg9
I0
sg11
F0.0
sg12
F0.0
sg13
F-94556.0
sg14
F0.0
sg15
F0.0
sg16
F0.0
sg17
F0.0
sg18
F0.0
sg19
F0.0
sg20
F368705.0
sg21
F0.0
sg22
F463261.0
sg23
F0.0
sg24
F774401.0
sg25
F0.0
ssS'BLACHMAN JEREMY M'
p57
(dp58
g3
F2475.0
sg4
F0.0
sg5
F84208.0
sg6
F0.0008080808080808081
sg7
I00
sg8
F831809.0
sg9
S'jeremy.blachman@enron.com'
p59
sg11
F25.0
sg12
F0.0
sg13
F0.0
sg14
F2326.0
sg15
F0.0
sg16
F14.0
sg17
F272.0
sg18
F0.0
sg19
F850000.0
sg20
F954354.0
sg21
F2.0
sg22
F189041.0
sg23
F248546.0
sg24
F2014835.0
sg25
F765313.0
ssS'SUNDE MARTIN'
p60
(dp61
g3
F2647.0
sg4
F0.0
sg5
F0.0
sg6
F0.004911220249338874
sg7
I00
sg8
F476451.0
sg9
S'marty.sunde@enron.com'
p62
sg11
F37.0
sg12
F0.0
sg13
F0.0
sg14
F2565.0
sg15
F0.0
sg16
F38.0
sg17
F111122.0
sg18
F0.0
sg19
F700000.0
sg20
F698920.0
sg21
F13.0
sg22
F698920.0
sg23
F257486.0
sg24
F1545059.0
sg25
F0.0
ssS'GIBBS DANA R'
p63
(dp64
g3
F169.0
sg4
F504610.0
sg5
F0.0
sg6
F0.0
sg7
I00
sg8
F461912.0
sg9
S'dana.gibbs@enron.com'
p65
sg11
F0.0
sg12
F0.0
sg13
F0.0
sg14
F23.0
sg15
F0.0
sg16
F12.0
sg17
F0.0
sg18
F0.0
sg19
F0.0
sg20
F2218275.0
sg21
F0.0
sg22
F0.0
sg23
F0.0
sg24
F966522.0
sg25
F2218275.0
ssS'LOWRY CHARLES P'
p66
(dp67
g3
F0.0
sg4
F0.0
sg5
F0.0
sg6
F0.0
sg7
I00
sg8
F0.0
sg9
I0
sg11
F0.0
sg12
F0.0
sg13
F-153686.0
sg14
F0.0
sg15
F0.0
sg16
F0.0
sg17
F0.0
sg18
F0.0
sg19
F0.0
sg20
F372205.0
sg21
F0.0
sg22
F153686.0
sg23
F0.0
sg24
F0.0
sg25
F372205.0
ssS'COLWELL WESLEY'
p68
(dp69
g3
F1758.0
sg4
F27610.0
sg5
F16514.0
sg6
F0.006257110352673493
sg7
I01
sg8
F0.0
sg9
S'wes.colwell@enron.com'
p70
sg11
F240.0
sg12
F-144062.0
sg13
F0.0
sg14
F1132.0
sg15
F0.0
sg16
F40.0
sg17
F101740.0
sg18
F0.0
sg19
F1200000.0
sg20
F698242.0
sg21
F11.0
sg22
F698242.0
sg23
F288542.0
sg24
F1490344.0
sg25
F0.0
ssS'MULLER MARK S'
p71
(dp72
g3
F136.0
sg4
F842924.0
sg5
F0.0
sg6
F0.0
sg7
I00
sg8
F1725545.0
sg9
S's..muller@enron.com'
p73
sg11
F12.0
sg12
F-719000.0
sg13
F0.0
sg14
F114.0
sg15
F0.0
sg16
F16.0
sg17
F947.0
sg18
F0.0
sg19
F1100000.0
sg20
F1416848.0
sg21
F0.0
sg22
F360528.0
sg23
F251654.0
sg24
F3202070.0
sg25
F1056320.0
ssS'JACKSON CHARLENE R'
p74
(dp75
g3
F258.0
sg4
F0.0
sg5
F10181.0
sg6
F0.07364341085271318
sg7
I00
sg8
F0.0
sg9
S'charlene.jackson@enron.com'
p76
sg11
F25.0
sg12
F0.0
sg13
F0.0
sg14
F117.0
sg15
F0.0
sg16
F56.0
sg17
F2435.0
sg18
F0.0
sg19
F250000.0
sg20
F725735.0
sg21
F19.0
sg22
F540672.0
sg23
F288558.0
sg24
F551174.0
sg25
F185063.0
ssS'WESTFAHL RICHARD K'
p77
(dp78
g3
F0.0
sg4
F0.0
sg5
F51870.0
sg6
F0.0
sg7
I00
sg8
F256191.0
sg9
S'dick.westfahl@enron.com'
p79
sg11
F0.0
sg12
F-10800.0
sg13
F0.0
sg14
F0.0
sg15
F0.0
sg16
F0.0
sg17
F401130.0
sg18
F0.0
sg19
F0.0
sg20
F384930.0
sg21
F0.0
sg22
F384930.0
sg23
F63744.0
sg24
F762135.0
sg25
F0.0
ssS'WALTERS GARETH W'
p80
(dp81
g3
F0.0
sg4
F53625.0
sg5
F33785.0
sg6
F0.0
sg7
I00
sg8
F0.0
sg9
I0
sg11
F0.0
sg12
F0.0
sg13
F0.0
sg14
F0.0
sg15
F0.0
sg16
F0.0
sg17
F0.0
sg18
F0.0
sg19
F0.0
sg20
F1030329.0
sg21
F0.0
sg22
F0.0
sg23
F0.0
sg24
F87410.0
sg25
F1030329.0
ssS'WALLS JR ROBERT H'
p82
(dp83
g3
F671.0
sg4
F0.0
sg5
F50936.0
sg6
F0.0
sg7
I00
sg8
F540751.0
sg9
S'rob.walls@enron.com'
p84
sg11
F17.0
sg12
F0.0
sg13
F0.0
sg14
F215.0
sg15
F0.0
sg16
F146.0
sg17
F2.0
sg18
F0.0
sg19
F850000.0
sg20
F5898997.0
sg21
F0.0
sg22
F1552453.0
sg23
F357091.0
sg24
F1798780.0
sg25
F4346544.0
ssS'KITCHEN LOUISE'
p85
(dp86
g3
F8305.0
sg4
F0.0
sg5
F5774.0
sg6
F0.023359422034918725
sg7
I00
sg8
F0.0
sg9
S'louise.kitchen@enron.com'
p87
sg11
F251.0
sg12
F0.0
sg13
F0.0
sg14
F3669.0
sg15
F0.0
sg16
F1728.0
sg17
F93925.0
sg18
F0.0
sg19
F3100000.0
sg20
F547143.0
sg21
F194.0
sg22
F466101.0
sg23
F271442.0
sg24
F3471141.0
sg25
F81042.0
ssS'CHAN RONNIE'
p88
(dp89
g3
F0.0
sg4
F0.0
sg5
F0.0
sg6
F0.0
sg7
I00
sg8
F0.0
sg9
I0
sg11
F0.0
sg12
F-98784.0
sg13
F-32460.0
sg14
F0.0
sg15
F0.0
sg16
F0.0
sg17
F0.0
sg18
F98784.0
sg19
F0.0
sg20
F0.0
sg21
F0.0
sg22
F32460.0
sg23
F0.0
sg24
F0.0
sg25
F0.0
ssS'BELFER ROBERT'
p90
(dp91
g3
F0.0
sg4
F-102500.0
sg5
F0.0
sg6
F0.0
sg7
I00
sg8
F0.0
sg9
I0
sg11
F0.0
sg12
F0.0
sg13
F44093.0
sg14
F0.0
sg15
F0.0
sg16
F0.0
sg17
F0.0
sg18
F3285.0
sg19
F0.0
sg20
F-44093.0
sg21
F0.0
sg22
F0.0
sg23
F0.0
sg24
F102500.0
sg25
F3285.0
ssS'SHANKMAN JEFFREY A'
p92
(dp93
g3
F3221.0
sg4
F0.0
sg5
F178979.0
sg6
F0.025768394908413535
sg7
I00
sg8
F554422.0
sg9
S'jeffrey.shankman@enron.com'
p94
sg11
F94.0
sg12
F0.0
sg13
F0.0
sg14
F1730.0
sg15
F0.0
sg16
F2681.0
sg17
F1191.0
sg18
F0.0
sg19
F2000000.0
sg20
F2072035.0
sg21
F83.0
sg22
F630137.0
sg23
F304110.0
sg24
F3038702.0
sg25
F1441898.0
ssS'WODRASKA JOHN'
p95
(dp96
g3
F0.0
sg4
F0.0
sg5
F0.0
sg6
F0.0
sg7
I00
sg8
F0.0
sg9
S'john.wodraska@enron.com'
p97
sg11
F0.0
sg12
F0.0
sg13
F0.0
sg14
F0.0
sg15
F0.0
sg16
F0.0
sg17
F189583.0
sg18
F0.0
sg19
F0.0
sg20
F0.0
sg21
F0.0
sg22
F0.0
sg23
F0.0
sg24
F189583.0
sg25
F0.0
ssS'BERGSIEKER RICHARD P'
p98
(dp99
g3
F383.0
sg4
F0.0
sg5
F59175.0
sg6
F0.0
sg7
I00
sg8
F180250.0
sg9
S'rick.bergsieker@enron.com'
p100
sg11
F4.0
sg12
F-485813.0
sg13
F0.0
sg14
F233.0
sg15
F0.0
sg16
F59.0
sg17
F427316.0
sg18
F0.0
sg19
F250000.0
sg20
F659249.0
sg21
F0.0
sg22
F659249.0
sg23
F187922.0
sg24
F618850.0
sg25
F0.0
ssS'URQUHART JOHN A'
p101
(dp102
g3
F0.0
sg4
F0.0
sg5
F228656.0
sg6
F0.0
sg7
I00
sg8
F0.0
sg9
I0
sg11
F0.0
sg12
F-36666.0
sg13
F0.0
sg14
F0.0
sg15
F0.0
sg16
F0.0
sg17
F0.0
sg18
F36666.0
sg19
F0.0
sg20
F0.0
sg21
F0.0
sg22
F0.0
sg23
F0.0
sg24
F228656.0
sg25
F0.0
ssS'BIBI PHILIPPE A'
p103
(dp104
g3
F1607.0
sg4
F0.0
sg5
F38559.0
sg6
F0.004978220286247666
sg7
I00
sg8
F369721.0
sg9
S'philippe.bibi@enron.com'
p105
sg11
F23.0
sg12
F0.0
sg13
F0.0
sg14
F1336.0
sg15
F0.0
sg16
F40.0
sg17
F425688.0
sg18
F0.0
sg19
F1000000.0
sg20
F1843816.0
sg21
F8.0
sg22
F378082.0
sg23
F213625.0
sg24
F2047593.0
sg25
F1465734.0
ssS'RIEKER PAULA H'
p106
(dp107
g3
F1328.0
sg4
F214678.0
sg5
F33271.0
sg6
F0.03614457831325301
sg7
I01
sg8
F0.0
sg9
S'paula.rieker@enron.com'
p108
sg11
F35.0
sg12
F-100000.0
sg13
F0.0
sg14
F1258.0
sg15
F0.0
sg16
F82.0
sg17
F1950.0
sg18
F0.0
sg19
F700000.0
sg20
F1918887.0
sg21
F48.0
sg22
F283649.0
sg23
F249201.0
sg24
F1099100.0
sg25
F1635238.0
ssS'BECK SALLY W'
p109
(dp110
g3
F7315.0
sg4
F0.0
sg5
F37172.0
sg6
F0.052768284347231714
sg7
I00
sg8
F0.0
sg9
S'sally.beck@enron.com'
p111
sg11
F144.0
sg12
F0.0
sg13
F0.0
sg14
F2639.0
sg15
F0.0
sg16
F4343.0
sg17
F566.0
sg18
F0.0
sg19
F700000.0
sg20
F126027.0
sg21
F386.0
sg22
F126027.0
sg23
F231330.0
sg24
F969068.0
sg25
F0.0
ssS'HAUG DAVID L'
p112
(dp113
g3
F573.0
sg4
F0.0
sg5
F475.0
sg6
F0.012216404886561954
sg7
I00
sg8
F0.0
sg9
S'david.haug@enron.com'
p114
sg11
F4.0
sg12
F0.0
sg13
F0.0
sg14
F471.0
sg15
F0.0
sg16
F19.0
sg17
F0.0
sg18
F0.0
sg19
F0.0
sg20
F2217299.0
sg21
F7.0
sg22
F2217299.0
sg23
F0.0
sg24
F475.0
sg25
F0.0
ssS'ECHOLS JOHN B'
p115
(dp116
g3
F0.0
sg4
F0.0
sg5
F21530.0
sg6
F0.0
sg7
I00
sg8
F2234774.0
sg9
S'john.echols@enron.com'
p117
sg11
F0.0
sg12
F0.0
sg13
F0.0
sg14
F0.0
sg15
F0.0
sg16
F0.0
sg17
F53775.0
sg18
F0.0
sg19
F200000.0
sg20
F1008941.0
sg21
F0.0
sg22
F407503.0
sg23
F182245.0
sg24
F2692324.0
sg25
F601438.0
ssS'MENDELSOHN JOHN'
p118
(dp119
g3
F0.0
sg4
F0.0
sg5
F148.0
sg6
F0.0
sg7
I00
sg8
F0.0
sg9
I0
sg11
F0.0
sg12
F-103750.0
sg13
F0.0
sg14
F0.0
sg15
F0.0
sg16
F0.0
sg17
F0.0
sg18
F103750.0
sg19
F0.0
sg20
F0.0
sg21
F0.0
sg22
F0.0
sg23
F0.0
sg24
F148.0
sg25
F0.0
ssS'HICKERSON GARY J'
p120
(dp121
g3
F1320.0
sg4
F0.0
sg5
F98849.0
sg6
F0.0007575757575757576
sg7
I00
sg8
F69223.0
sg9
S'gary.hickerson@enron.com'
p122
sg11
F40.0
sg12
F0.0
sg13
F0.0
sg14
F900.0
sg15
F0.0
sg16
F27.0
sg17
F1936.0
sg18
F0.0
sg19
F1700000.0
sg20
F441096.0
sg21
F1.0
sg22
F441096.0
sg23
F211788.0
sg24
F2081796.0
sg25
F0.0
ssS'CLINE KENNETH W'
p123
(dp124
g3
F0.0
sg4
F0.0
sg5
F0.0
sg6
F0.0
sg7
I00
sg8
F0.0
sg9
I0
sg11
F0.0
sg12
F0.0
sg13
F-472568.0
sg14
F0.0
sg15
F0.0
sg16
F0.0
sg17
F0.0
sg18
F0.0
sg19
F0.0
sg20
F189518.0
sg21
F0.0
sg22
F662086.0
sg23
F0.0
sg24
F0.0
sg25
F0.0
ssS'LEWIS RICHARD'
p125
(dp126
g3
F952.0
sg4
F0.0
sg5
F0.0
sg6
F0.0
sg7
I00
sg8
F0.0
sg9
S'richard.lewis@enron.com'
p127
sg11
F10.0
sg12
F0.0
sg13
F0.0
sg14
F739.0
sg15
F0.0
sg16
F26.0
sg17
F0.0
sg18
F0.0
sg19
F0.0
sg20
F850477.0
sg21
F0.0
sg22
F0.0
sg23
F0.0
sg24
F0.0
sg25
F850477.0
ssS'HAYES ROBERT E'
p128
(dp129
g3
F504.0
sg4
F7961.0
sg5
F0.0
sg6
F0.0
sg7
I00
sg8
F0.0
sg9
S'robert.hayes@enron.com'
p130
sg11
F16.0
sg12
F0.0
sg13
F0.0
sg14
F50.0
sg15
F0.0
sg16
F12.0
sg17
F0.0
sg18
F0.0
sg19
F0.0
sg20
F151418.0
sg21
F0.0
sg22
F151418.0
sg23
F0.0
sg24
F7961.0
sg25
F0.0
ssS'KOPPER MICHAEL J'
p131
(dp132
g3
F0.0
sg4
F0.0
sg5
F118134.0
sg6
F0.0
sg7
I01
sg8
F602671.0
sg9
S'michael.kopper@enron.com'
p133
sg11
F0.0
sg12
F0.0
sg13
F0.0
sg14
F0.0
sg15
F0.0
sg16
F0.0
sg17
F907502.0
sg18
F0.0
sg19
F800000.0
sg20
F985032.0
sg21
F0.0
sg22
F985032.0
sg23
F224305.0
sg24
F2652612.0
sg25
F0.0
ssS'LEFF DANIEL P'
p134
(dp135
g3
F2822.0
sg4
F0.0
sg5
F0.0
sg6
F0.004961020552799433
sg7
I00
sg8
F1387399.0
sg9
S'dan.leff@enron.com'
p136
sg11
F67.0
sg12
F0.0
sg13
F0.0
sg14
F2672.0
sg15
F0.0
sg16
F63.0
sg17
F3083.0
sg18
F0.0
sg19
F1000000.0
sg20
F360528.0
sg21
F14.0
sg22
F360528.0
sg23
F273746.0
sg24
F2664228.0
sg25
F0.0
ssS'LAVORATO JOHN J'
p137
(dp138
g3
F7259.0
sg4
F0.0
sg5
F49537.0
sg6
F0.05661936905909905
sg7
I00
sg8
F2035380.0
sg9
S'john.lavorato@enron.com'
p139
sg11
F528.0
sg12
F0.0
sg13
F0.0
sg14
F3962.0
sg15
F0.0
sg16
F2585.0
sg17
F1552.0
sg18
F0.0
sg19
F8000000.0
sg20
F5167144.0
sg21
F411.0
sg22
F1008149.0
sg23
F339288.0
sg24
F10425757.0
sg25
F4158995.0
ssS'BERBERIAN DAVID'
p140
(dp141
g3
F0.0
sg4
F0.0
sg5
F11892.0
sg6
F0.0
sg7
I00
sg8
F0.0
sg9
S'david.berberian@enron.com'
p142
sg11
F0.0
sg12
F0.0
sg13
F0.0
sg14
F0.0
sg15
F0.0
sg16
F0.0
sg17
F0.0
sg18
F0.0
sg19
F0.0
sg20
F2493616.0
sg21
F0.0
sg22
F869220.0
sg23
F216582.0
sg24
F228474.0
sg25
F1624396.0
ssS'DETMERING TIMOTHY J'
p143
(dp144
g3
F0.0
sg4
F875307.0
sg5
F52255.0
sg6
F0.0
sg7
I00
sg8
F415657.0
sg9
S'timothy.detmering@enron.com'
p145
sg11
F0.0
sg12
F-775241.0
sg13
F-315068.0
sg14
F0.0
sg15
F0.0
sg16
F0.0
sg17
F1105.0
sg18
F0.0
sg19
F425000.0
sg20
F2027865.0
sg21
F0.0
sg22
F315068.0
sg23
F210500.0
sg24
F1204583.0
sg25
F2027865.0
ssS'WAKEHAM JOHN'
p146
(dp147
g3
F0.0
sg4
F0.0
sg5
F103773.0
sg6
F0.0
sg7
I00
sg8
F0.0
sg9
I0
sg11
F0.0
sg12
F0.0
sg13
F0.0
sg14
F0.0
sg15
F0.0
sg16
F0.0
sg17
F0.0
sg18
F109298.0
sg19
F0.0
sg20
F0.0
sg21
F0.0
sg22
F0.0
sg23
F0.0
sg24
F213071.0
sg25
F0.0
ssS'POWERS WILLIAM'
p148
(dp149
g3
F653.0
sg4
F0.0
sg5
F0.0
sg6
F0.0
sg7
I00
sg8
F0.0
sg9
S'ken.powers@enron.com'
p150
sg11
F0.0
sg12
F-17500.0
sg13
F0.0
sg14
F12.0
sg15
F0.0
sg16
F26.0
sg17
F0.0
sg18
F17500.0
sg19
F0.0
sg20
F0.0
sg21
F0.0
sg22
F0.0
sg23
F0.0
sg24
F0.0
sg25
F0.0
ssS'GOLD JOSEPH'
p151
(dp152
g3
F0.0
sg4
F0.0
sg5
F0.0
sg6
F0.0
sg7
I00
sg8
F304805.0
sg9
S'joe.gold@enron.com'
p153
sg11
F0.0
sg12
F0.0
sg13
F0.0
sg14
F0.0
sg15
F0.0
sg16
F0.0
sg17
F819288.0
sg18
F0.0
sg19
F750000.0
sg20
F877611.0
sg21
F0.0
sg22
F441096.0
sg23
F272880.0
sg24
F2146973.0
sg25
F436515.0
ssS'BANNANTINE JAMES M'
p154
(dp155
g3
F566.0
sg4
F0.0
sg5
F56301.0
sg6
F0.0
sg7
I00
sg8
F0.0
sg9
S'james.bannantine@enron.com'
p156
sg11
F39.0
sg12
F-5104.0
sg13
F-560222.0
sg14
F465.0
sg15
F0.0
sg16
F29.0
sg17
F864523.0
sg18
F0.0
sg19
F0.0
sg20
F5243487.0
sg21
F0.0
sg22
F1757552.0
sg23
F477.0
sg24
F916197.0
sg25
F4046157.0
ssS'DUNCAN JOHN H'
p157
(dp158
g3
F0.0
sg4
F0.0
sg5
F0.0
sg6
F0.0
sg7
I00
sg8
F0.0
sg9
I0
sg11
F0.0
sg12
F-25000.0
sg13
F0.0
sg14
F0.0
sg15
F0.0
sg16
F0.0
sg17
F0.0
sg18
F102492.0
sg19
F0.0
sg20
F371750.0
sg21
F0.0
sg22
F0.0
sg23
F0.0
sg24
F77492.0
sg25
F371750.0
ssS'SHAPIRO RICHARD S'
p159
(dp160
g3
F15149.0
sg4
F0.0
sg5
F137767.0
sg6
F0.004290712258234867
sg7
I00
sg8
F0.0
sg9
S'richard.shapiro@enron.com'
p161
sg11
F74.0
sg12
F0.0
sg13
F0.0
sg14
F4527.0
sg15
F0.0
sg16
F1215.0
sg17
F705.0
sg18
F0.0
sg19
F650000.0
sg20
F987001.0
sg21
F65.0
sg22
F379164.0
sg23
F269076.0
sg24
F1057548.0
sg25
F607837.0
ssS'SHERRIFF JOHN R'
p162
(dp163
g3
F3187.0
sg4
F0.0
sg5
F0.0
sg6
F0.0072168183244430495
sg7
I00
sg8
F554422.0
sg9
S'john.sherriff@enron.com'
p164
sg11
F28.0
sg12
F0.0
sg13
F0.0
sg14
F2103.0
sg15
F0.0
sg16
F92.0
sg17
F1852186.0
sg18
F0.0
sg19
F1500000.0
sg20
F3128982.0
sg21
F23.0
sg22
F1293424.0
sg23
F428780.0
sg24
F4335388.0
sg25
F1835558.0
ssS'SHELBY REX'
p165
(dp166
g3
F225.0
sg4
F0.0
sg5
F22884.0
sg6
F0.06222222222222222
sg7
I01
sg8
F0.0
sg9
S'rex.shelby@enron.com'
p167
sg11
F13.0
sg12
F-4167.0
sg13
F0.0
sg14
F91.0
sg15
F0.0
sg16
F39.0
sg17
F1573324.0
sg18
F0.0
sg19
F200000.0
sg20
F2493616.0
sg21
F14.0
sg22
F869220.0
sg23
F211844.0
sg24
F2003885.0
sg25
F1624396.0
ssS'LEMAISTRE CHARLES'
p168
(dp169
g3
F0.0
sg4
F0.0
sg5
F0.0
sg6
F0.0
sg7
I00
sg8
F0.0
sg9
I0
sg11
F0.0
sg12
F-25000.0
sg13
F0.0
sg14
F0.0
sg15
F0.0
sg16
F0.0
sg17
F0.0
sg18
F112492.0
sg19
F0.0
sg20
F412878.0
sg21
F0.0
sg22
F0.0
sg23
F0.0
sg24
F87492.0
sg25
F412878.0
ssS'DEFFNER JOSEPH M'
p170
(dp171
g3
F714.0
sg4
F0.0
sg5
F41626.0
sg6
F0.0056022408963585435
sg7
I00
sg8
F335349.0
sg9
S'joseph.deffner@enron.com'
p172
sg11
F115.0
sg12
F0.0
sg13
F0.0
sg14
F552.0
sg15
F0.0
sg16
F74.0
sg17
F25553.0
sg18
F0.0
sg19
F600000.0
sg20
F159211.0
sg21
F4.0
sg22
F141833.0
sg23
F206121.0
sg24
F1208649.0
sg25
F17378.0
ssS'KISHKILL JOSEPH G'
p173
(dp174
g3
F0.0
sg4
F0.0
sg5
F116335.0
sg6
F0.0
sg7
I00
sg8
F0.0
sg9
S'joe.kishkill@enron.com'
p175
sg11
F0.0
sg12
F-51042.0
sg13
F0.0
sg14
F0.0
sg15
F0.0
sg16
F0.0
sg17
F465357.0
sg18
F0.0
sg19
F0.0
sg20
F1034346.0
sg21
F0.0
sg22
F1034346.0
sg23
F174246.0
sg24
F704896.0
sg25
F0.0
ssS'WHALLEY LAWRENCE G'
p176
(dp177
g3
F6019.0
sg4
F0.0
sg5
F57838.0
sg6
F0.003987373317826882
sg7
I00
sg8
F808346.0
sg9
S'greg.whalley@enron.com'
p178
sg11
F186.0
sg12
F0.0
sg13
F0.0
sg14
F3920.0
sg15
F0.0
sg16
F556.0
sg17
F301026.0
sg18
F0.0
sg19
F3000000.0
sg20
F6079137.0
sg21
F24.0
sg22
F2796177.0
sg23
F510364.0
sg24
F4677574.0
sg25
F3282960.0
ssS'PIRO JIM'
p179
(dp180
g3
F58.0
sg4
F0.0
sg5
F0.0
sg6
F0.017241379310344827
sg7
I00
sg8
F0.0
sg9
S'jim.piro@enron.com'
p181
sg11
F0.0
sg12
F0.0
sg13
F0.0
sg14
F3.0
sg15
F0.0
sg16
F16.0
sg17
F0.0
sg18
F0.0
sg19
F0.0
sg20
F47304.0
sg21
F1.0
sg22
F47304.0
sg23
F0.0
sg24
F0.0
sg25
F0.0
ssS'MCCONNELL MICHAEL S'
p182
(dp183
g3
F3329.0
sg4
F0.0
sg5
F81364.0
sg6
F0.058275758486031844
sg7
I00
sg8
F554422.0
sg9
S'mike.mcconnell@enron.com'
p184
sg11
F92.0
sg12
F0.0
sg13
F0.0
sg14
F2189.0
sg15
F0.0
sg16
F2742.0
sg17
F540.0
sg18
F0.0
sg19
F1100000.0
sg20
F3101279.0
sg21
F194.0
sg22
F1478269.0
sg23
F365038.0
sg24
F2101364.0
sg25
F1623010.0
ssS'DELAINEY DAVID W'
p185
(dp186
g3
F3093.0
sg4
F0.0
sg5
F86174.0
sg6
F0.19689621726479145
sg7
I01
sg8
F1294981.0
sg9
S'david.delainey@enron.com'
p187
sg11
F66.0
sg12
F0.0
sg13
F0.0
sg14
F2097.0
sg15
F0.0
sg16
F3069.0
sg17
F1661.0
sg18
F0.0
sg19
F3000000.0
sg20
F3614261.0
sg21
F609.0
sg22
F1323148.0
sg23
F365163.0
sg24
F4747979.0
sg25
F2291113.0
ssS'SULLIVAN-SHAKLOVITZ COLLEEN'
p188
(dp189
g3
F0.0
sg4
F181993.0
sg5
F0.0
sg6
F0.0
sg7
I00
sg8
F554422.0
sg9
I0
sg11
F0.0
sg12
F0.0
sg13
F0.0
sg14
F0.0
sg15
F0.0
sg16
F0.0
sg17
F162.0
sg18
F0.0
sg19
F100000.0
sg20
F1362375.0
sg21
F0.0
sg22
F0.0
sg23
F162779.0
sg24
F999356.0
sg25
F1362375.0
ssS'LINDHOLM TOD A'
p190
(dp191
g3
F0.0
sg4
F204075.0
sg5
F57727.0
sg6
F0.0
sg7
I00
sg8
F175000.0
sg9
S'tod.lindholm@enron.com'
p192
sg11
F0.0
sg12
F0.0
sg13
F0.0
sg14
F0.0
sg15
F0.0
sg16
F0.0
sg17
F2630.0
sg18
F0.0
sg19
F200000.0
sg20
F3064208.0
sg21
F0.0
sg22
F514847.0
sg23
F236457.0
sg24
F875889.0
sg25
F2549361.0
ssS'MEYER JEROME J'
p193
(dp194
g3
F0.0
sg4
F0.0
sg5
F2151.0
sg6
F0.0
sg7
I00
sg8
F0.0
sg9
I0
sg11
F0.0
sg12
F-38346.0
sg13
F0.0
sg14
F0.0
sg15
F0.0
sg16
F0.0
sg17
F0.0
sg18
F38346.0
sg19
F0.0
sg20
F0.0
sg21
F0.0
sg22
F0.0
sg23
F0.0
sg24
F2151.0
sg25
F0.0
ssS'LAY KENNETH L'
p195
(dp196
g3
F4273.0
sg4
F202911.0
sg5
F99832.0
sg6
F0.003744441844137608
sg7
I01
sg8
F3600000.0
sg9
S'kenneth.lay@enron.com'
p197
sg11
F123.0
sg12
F-300000.0
sg13
F0.0
sg14
F2411.0
sg15
F81525000.0
sg16
F36.0
sg17
F10359729.0
sg18
F0.0
sg19
F7000000.0
sg20
F49110078.0
sg21
F16.0
sg22
F14761694.0
sg23
F1072321.0
sg24
F103559793.0
sg25
F34348384.0
ssS'BUTTS ROBERT H'
p198
(dp199
g3
F0.0
sg4
F0.0
sg5
F9410.0
sg6
F0.0
sg7
I00
sg8
F175000.0
sg9
S'bob.butts@enron.com'
p200
sg11
F0.0
sg12
F-75000.0
sg13
F0.0
sg14
F0.0
sg15
F0.0
sg16
F0.0
sg17
F150656.0
sg18
F0.0
sg19
F750000.0
sg20
F417619.0
sg21
F0.0
sg22
F417619.0
sg23
F261516.0
sg24
F1271582.0
sg25
F0.0
ssS'OLSON CINDY K'
p201
(dp202
g3
F1184.0
sg4
F77716.0
sg5
F63791.0
sg6
F0.01266891891891892
sg7
I00
sg8
F100000.0
sg9
S'cindy.olson@enron.com'
p203
sg11
F20.0
sg12
F0.0
sg13
F0.0
sg14
F856.0
sg15
F0.0
sg16
F52.0
sg17
F972.0
sg18
F0.0
sg19
F750000.0
sg20
F2606763.0
sg21
F15.0
sg22
F969729.0
sg23
F329078.0
sg24
F1321557.0
sg25
F1637034.0
ssS'MCDONALD REBECCA'
p204
(dp205
g3
F894.0
sg4
F0.0
sg5
F0.0
sg6
F0.0011185682326621924
sg7
I00
sg8
F0.0
sg9
S'rebecca.mcdonald@enron.com'
p206
sg11
F54.0
sg12
F0.0
sg13
F0.0
sg14
F720.0
sg15
F0.0
sg16
F13.0
sg17
F0.0
sg18
F0.0
sg19
F0.0
sg20
F1691366.0
sg21
F1.0
sg22
F934065.0
sg23
F0.0
sg24
F0.0
sg25
F757301.0
ssS'CUMBERLAND MICHAEL S'
p207
(dp208
g3
F0.0
sg4
F0.0
sg5
F22344.0
sg6
F0.0
sg7
I00
sg8
F275000.0
sg9
I0
sg11
F0.0
sg12
F0.0
sg13
F0.0
sg14
F0.0
sg15
F0.0
sg16
F0.0
sg17
F713.0
sg18
F0.0
sg19
F325000.0
sg20
F207940.0
sg21
F0.0
sg22
F207940.0
sg23
F184899.0
sg24
F807956.0
sg25
F0.0
ssS'GAHN ROBERT S'
p209
(dp210
g3
F0.0
sg4
F73122.0
sg5
F50080.0
sg6
F0.0
sg7
I00
sg8
F0.0
sg9
I0
sg11
F0.0
sg12
F-1042.0
sg13
F0.0
sg14
F0.0
sg15
F0.0
sg16
F0.0
sg17
F76547.0
sg18
F0.0
sg19
F509870.0
sg20
F318607.0
sg21
F0.0
sg22
F235370.0
sg23
F192008.0
sg24
F900585.0
sg25
F83237.0
ssS'BADUM JAMES P'
p211
(dp212
g3
F0.0
sg4
F178980.0
sg5
F3486.0
sg6
F0.0
sg7
I00
sg8
F0.0
sg9
I0
sg11
F0.0
sg12
F0.0
sg13
F0.0
sg14
F0.0
sg15
F0.0
sg16
F0.0
sg17
F0.0
sg18
F0.0
sg19
F0.0
sg20
F257817.0
sg21
F0.0
sg22
F0.0
sg23
F0.0
sg24
F182466.0
sg25
F257817.0
ssS'HERMANN ROBERT J'
p213
(dp214
g3
F0.0
sg4
F0.0
sg5
F48357.0
sg6
F0.0
sg7
I00
sg8
F150000.0
sg9
S'robert.hermann@enron.com'
p215
sg11
F0.0
sg12
F-280000.0
sg13
F0.0
sg14
F0.0
sg15
F0.0
sg16
F0.0
sg17
F416441.0
sg18
F0.0
sg19
F700000.0
sg20
F668132.0
sg21
F0.0
sg22
F480632.0
sg23
F262663.0
sg24
F1297461.0
sg25
F187500.0
ssS'FALLON JAMES B'
p216
(dp217
g3
F1755.0
sg4
F0.0
sg5
F95924.0
sg6
F0.021082621082621083
sg7
I00
sg8
F374347.0
sg9
S'jim.fallon@enron.com'
p218
sg11
F42.0
sg12
F0.0
sg13
F0.0
sg14
F1604.0
sg15
F0.0
sg16
F75.0
sg17
F401481.0
sg18
F0.0
sg19
F2500000.0
sg20
F2332399.0
sg21
F37.0
sg22
F1392142.0
sg23
F304588.0
sg24
F3676340.0
sg25
F940257.0
ssS'GATHMANN WILLIAM D'
p219
(dp220
g3
F0.0
sg4
F0.0
sg5
F0.0
sg6
F0.0
sg7
I00
sg8
F0.0
sg9
I0
sg11
F0.0
sg12
F0.0
sg13
F-72419.0
sg14
F0.0
sg15
F0.0
sg16
F0.0
sg17
F0.0
sg18
F0.0
sg19
F0.0
sg20
F1945360.0
sg21
F0.0
sg22
F264013.0
sg23
F0.0
sg24
F0.0
sg25
F1753766.0
ssS'HORTON STANLEY C'
p221
(dp222
g3
F2350.0
sg4
F3131860.0
sg5
F0.0
sg6
F0.006382978723404255
sg7
I00
sg8
F0.0
sg9
S'stanley.horton@enron.com'
p223
sg11
F44.0
sg12
F0.0
sg13
F0.0
sg14
F1074.0
sg15
F0.0
sg16
F1073.0
sg17
F0.0
sg18
F0.0
sg19
F0.0
sg20
F7256648.0
sg21
F15.0
sg22
F2046079.0
sg23
F0.0
sg24
F3131860.0
sg25
F5210569.0
ssS'BOWEN JR RAYMOND M'
p224
(dp225
g3
F1858.0
sg4
F0.0
sg5
F65907.0
sg6
F0.008073196986006458
sg7
I01
sg8
F974293.0
sg9
S'raymond.bowen@enron.com'
p226
sg11
F140.0
sg12
F-833.0
sg13
F0.0
sg14
F1593.0
sg15
F0.0
sg16
F27.0
sg17
F1621.0
sg18
F0.0
sg19
F1350000.0
sg20
F252055.0
sg21
F15.0
sg22
F252055.0
sg23
F278601.0
sg24
F2669589.0
sg25
F0.0
ssS'GILLIS JOHN'
p227
(dp228
g3
F0.0
sg4
F0.0
sg5
F0.0
sg6
F0.0
sg7
I00
sg8
F0.0
sg9
I0
sg11
F0.0
sg12
F0.0
sg13
F0.0
sg14
F0.0
sg15
F0.0
sg16
F0.0
sg17
F0.0
sg18
F0.0
sg19
F0.0
sg20
F85641.0
sg21
F0.0
sg22
F75838.0
sg23
F0.0
sg24
F0.0
sg25
F9803.0
ssS'FASTOW ANDREW S'
p229
(dp230
g3
F0.0
sg4
F0.0
sg5
F55921.0
sg6
F0.0
sg7
I01
sg8
F1736055.0
sg9
S'andrew.fastow@enron.com'
p231
sg11
F0.0
sg12
F-1386055.0
sg13
F0.0
sg14
F0.0
sg15
F0.0
sg16
F0.0
sg17
F277464.0
sg18
F0.0
sg19
F1300000.0
sg20
F1794412.0
sg21
F0.0
sg22
F1794412.0
sg23
F440698.0
sg24
F2424083.0
sg25
F0.0
ssS'FITZGERALD JAY L'
p232
(dp233
g3
F936.0
sg4
F0.0
sg5
F23870.0
sg6
F0.008547008547008548
sg7
I00
sg8
F556416.0
sg9
S'jay.fitzgerald@enron.com'
p234
sg11
F1.0
sg12
F0.0
sg13
F0.0
sg14
F723.0
sg15
F0.0
sg16
F16.0
sg17
F285414.0
sg18
F0.0
sg19
F350000.0
sg20
F1621236.0
sg21
F8.0
sg22
F956775.0
sg23
F199157.0
sg24
F1414857.0
sg25
F664461.0
ssS'MORAN MICHAEL P'
p235
(dp236
g3
F672.0
sg4
F0.0
sg5
F0.0
sg6
F0.0
sg7
I00
sg8
F0.0
sg9
S'michael.moran@enron.com'
p237
sg11
F0.0
sg12
F0.0
sg13
F0.0
sg14
F127.0
sg15
F0.0
sg16
F19.0
sg17
F0.0
sg18
F0.0
sg19
F0.0
sg20
F221141.0
sg21
F0.0
sg22
F161602.0
sg23
F0.0
sg24
F0.0
sg25
F59539.0
ssS'REDMOND BRIAN L'
p238
(dp239
g3
F1671.0
sg4
F0.0
sg5
F14689.0
sg6
F0.029323758228605626
sg7
I00
sg8
F0.0
sg9
S'brian.redmond@enron.com'
p240
sg11
F204.0
sg12
F0.0
sg13
F0.0
sg14
F1063.0
sg15
F0.0
sg16
F221.0
sg17
F0.0
sg18
F0.0
sg19
F0.0
sg20
F7890324.0
sg21
F49.0
sg22
F381285.0
sg23
F96840.0
sg24
F111529.0
sg25
F7509039.0
ssS'BAZELIDES PHILIP J'
p241
(dp242
g3
F0.0
sg4
F684694.0
sg5
F0.0
sg6
F0.0
sg7
I00
sg8
F93750.0
sg9
I0
sg11
F0.0
sg12
F0.0
sg13
F0.0
sg14
F0.0
sg15
F0.0
sg16
F0.0
sg17
F874.0
sg18
F0.0
sg19
F0.0
sg20
F1599641.0
sg21
F0.0
sg22
F0.0
sg23
F80818.0
sg24
F860136.0
sg25
F1599641.0
ssS'BELDEN TIMOTHY N'
p243
(dp244
g3
F7991.0
sg4
F2144013.0
sg5
F17355.0
sg6
F0.013515204605180828
sg7
I01
sg8
F0.0
sg9
S'tim.belden@enron.com'
p245
sg11
F228.0
sg12
F-2334434.0
sg13
F0.0
sg14
F5521.0
sg15
F0.0
sg16
F484.0
sg17
F210698.0
sg18
F0.0
sg19
F5249999.0
sg20
F1110705.0
sg21
F108.0
sg22
F157569.0
sg23
F213999.0
sg24
F5501630.0
sg25
F953136.0
ssS'DIMICHELE RICHARD G'
p246
(dp247
g3
F0.0
sg4
F0.0
sg5
F35812.0
sg6
F0.0
sg7
I00
sg8
F694862.0
sg9
S'richard.dimichele@enron.com'
p248
sg11
F0.0
sg12
F0.0
sg13
F0.0
sg14
F0.0
sg15
F0.0
sg16
F0.0
sg17
F374689.0
sg18
F0.0
sg19
F1000000.0
sg20
F8317782.0
sg21
F0.0
sg22
F126027.0
sg23
F262788.0
sg24
F2368151.0
sg25
F8191755.0
ssS'DURAN WILLIAM D'
p249
(dp250
g3
F904.0
sg4
F0.0
sg5
F25785.0
sg6
F0.00331858407079646
sg7
I00
sg8
F1105218.0
sg9
S'w.duran@enron.com'
p251
sg11
F106.0
sg12
F0.0
sg13
F0.0
sg14
F599.0
sg15
F0.0
sg16
F12.0
sg17
F1568.0
sg18
F0.0
sg19
F750000.0
sg20
F1640910.0
sg21
F3.0
sg22
F189041.0
sg23
F210692.0
sg24
F2093263.0
sg25
F1451869.0
ssS'THORN TERENCE H'
p252
(dp253
g3
F266.0
sg4
F16586.0
sg5
F46145.0
sg6
F0.0
sg7
I00
sg8
F200000.0
sg9
S'terence.thorn@enron.com'
p254
sg11
F0.0
sg12
F0.0
sg13
F0.0
sg14
F73.0
sg15
F0.0
sg16
F41.0
sg17
F426629.0
sg18
F0.0
sg19
F0.0
sg20
F4817796.0
sg21
F0.0
sg22
F365320.0
sg23
F222093.0
sg24
F911453.0
sg25
F4452476.0
ssS'FOY JOE'
p255
(dp256
g3
F57.0
sg4
F181755.0
sg5
F0.0
sg6
F0.0
sg7
I00
sg8
F0.0
sg9
S'tracy.foy@enron.com'
p257
sg11
F0.0
sg12
F0.0
sg13
F0.0
sg14
F2.0
sg15
F0.0
sg16
F13.0
sg17
F0.0
sg18
F0.0
sg19
F0.0
sg20
F343434.0
sg21
F0.0
sg22
F0.0
sg23
F0.0
sg24
F181755.0
sg25
F343434.0
ssS'CALGER CHRISTOPHER F'
p258
(dp259
g3
F2598.0
sg4
F0.0
sg5
F35818.0
sg6
F0.00962278675904542
sg7
I01
sg8
F375304.0
sg9
S'christopher.calger@enron.com'
p260
sg11
F199.0
sg12
F-262500.0
sg13
F0.0
sg14
F2188.0
sg15
F0.0
sg16
F144.0
sg17
F486.0
sg18
F0.0
sg19
F1250000.0
sg20
F126027.0
sg21
F25.0
sg22
F126027.0
sg23
F240189.0
sg24
F1639297.0
sg25
F0.0
ssS'RICE KENNETH D'
p261
(dp262
g3
F905.0
sg4
F0.0
sg5
F46950.0
sg6
F0.004419889502762431
sg7
I01
sg8
F1617011.0
sg9
S'ken.rice@enron.com'
p263
sg11
F42.0
sg12
F-3504386.0
sg13
F0.0
sg14
F864.0
sg15
F0.0
sg16
F18.0
sg17
F174839.0
sg18
F0.0
sg19
F1750000.0
sg20
F22542539.0
sg21
F4.0
sg22
F2748364.0
sg23
F420636.0
sg24
F505050.0
sg25
F19794175.0
ssS'KAMINSKI WINCENTY J'
p264
(dp265
g3
F4607.0
sg4
F0.0
sg5
F83585.0
sg6
F0.03711742999782939
sg7
I00
sg8
F323466.0
sg9
S'vince.kaminski@enron.com'
p266
sg11
F41.0
sg12
F0.0
sg13
F0.0
sg14
F583.0
sg15
F0.0
sg16
F14368.0
sg17
F4669.0
sg18
F0.0
sg19
F400000.0
sg20
F976037.0
sg21
F171.0
sg22
F126027.0
sg23
F275101.0
sg24
F1086821.0
sg25
F850010.0
ssS'COX DAVID'
p267
(dp268
g3
F102.0
sg4
F0.0
sg5
F27861.0
sg6
F0.0392156862745098
sg7
I00
sg8
F0.0
sg9
S'chip.cox@enron.com'
p269
sg11
F0.0
sg12
F-41250.0
sg13
F0.0
sg14
F71.0
sg15
F0.0
sg16
F33.0
sg17
F494.0
sg18
F0.0
sg19
F800000.0
sg20
F495633.0
sg21
F4.0
sg22
F378082.0
sg23
F314288.0
sg24
F1101393.0
sg25
F117551.0
ssS'OVERDYKE JR JERE C'
p270
(dp271
g3
F0.0
sg4
F0.0
sg5
F18834.0
sg6
F0.0
sg7
I00
sg8
F135836.0
sg9
S'jere.overdyke@enron.com'
p272
sg11
F0.0
sg12
F0.0
sg13
F0.0
sg14
F0.0
sg15
F0.0
sg16
F0.0
sg17
F176.0
sg18
F0.0
sg19
F0.0
sg20
F7307594.0
sg21
F0.0
sg22
F2041016.0
sg23
F94941.0
sg24
F249787.0
sg25
F5266578.0
ssS'PEREIRA PAULO V. FERRAZ'
p273
(dp274
g3
F0.0
sg4
F0.0
sg5
F27942.0
sg6
F0.0
sg7
I00
sg8
F0.0
sg9
I0
sg11
F0.0
sg12
F-101250.0
sg13
F0.0
sg14
F0.0
sg15
F0.0
sg16
F0.0
sg17
F0.0
sg18
F101250.0
sg19
F0.0
sg20
F0.0
sg21
F0.0
sg22
F0.0
sg23
F0.0
sg24
F27942.0
sg25
F0.0
ssS'STABLER FRANK'
p275
(dp276
g3
F0.0
sg4
F0.0
sg5
F16514.0
sg6
F0.0
sg7
I00
sg8
F0.0
sg9
S'frank.stabler@enron.com'
p277
sg11
F0.0
sg12
F0.0
sg13
F0.0
sg14
F0.0
sg15
F0.0
sg16
F0.0
sg17
F356071.0
sg18
F0.0
sg19
F500000.0
sg20
F511734.0
sg21
F0.0
sg22
F511734.0
sg23
F239502.0
sg24
F1112087.0
sg25
F0.0
ssS'SKILLING JEFFREY K'
p278
(dp279
g3
F3627.0
sg4
F0.0
sg5
F29336.0
sg6
F0.008271298593879239
sg7
I01
sg8
F1920000.0
sg9
S'jeff.skilling@enron.com'
p280
sg11
F88.0
sg12
F0.0
sg13
F0.0
sg14
F2042.0
sg15
F0.0
sg16
F108.0
sg17
F22122.0
sg18
F0.0
sg19
F5600000.0
sg20
F26093672.0
sg21
F30.0
sg22
F6843672.0
sg23
F1111258.0
sg24
F8682716.0
sg25
F19250000.0
ssS'BLAKE JR. NORMAN P'
p281
(dp282
g3
F0.0
sg4
F0.0
sg5
F1279.0
sg6
F0.0
sg7
I00
sg8
F0.0
sg9
I0
sg11
F0.0
sg12
F-113784.0
sg13
F0.0
sg14
F0.0
sg15
F0.0
sg16
F0.0
sg17
F0.0
sg18
F113784.0
sg19
F0.0
sg20
F0.0
sg21
F0.0
sg22
F0.0
sg23
F0.0
sg24
F1279.0
sg25
F0.0
ssS'SHERRICK JEFFREY B'
p283
(dp284
g3
F613.0
sg4
F0.0
sg5
F0.0
sg6
F0.02936378466557912
sg7
I00
sg8
F0.0
sg9
S'jeffrey.sherrick@enron.com'
p285
sg11
F39.0
sg12
F0.0
sg13
F0.0
sg14
F583.0
sg15
F0.0
sg16
F25.0
sg17
F0.0
sg18
F0.0
sg19
F0.0
sg20
F1832468.0
sg21
F18.0
sg22
F405999.0
sg23
F0.0
sg24
F0.0
sg25
F1426469.0
ssS'PRENTICE JAMES'
p286
(dp287
g3
F0.0
sg4
F564348.0
sg5
F0.0
sg6
F0.0
sg7
I00
sg8
F0.0
sg9
S'james.prentice@enron.com'
p288
sg11
F0.0
sg12
F0.0
sg13
F0.0
sg14
F0.0
sg15
F0.0
sg16
F0.0
sg17
F0.0
sg18
F0.0
sg19
F0.0
sg20
F1095040.0
sg21
F0.0
sg22
F208809.0
sg23
F0.0
sg24
F564348.0
sg25
F886231.0
ssS'GRAY RODNEY'
p289
(dp290
g3
F0.0
sg4
F93585.0
sg5
F0.0
sg6
F0.0
sg7
I00
sg8
F365625.0
sg9
I0
sg11
F0.0
sg12
F0.0
sg13
F0.0
sg14
F0.0
sg15
F0.0
sg16
F0.0
sg17
F680833.0
sg18
F0.0
sg19
F0.0
sg20
F0.0
sg21
F0.0
sg22
F0.0
sg23
F6615.0
sg24
F1146658.0
sg25
F0.0
ssS'UMANOFF ADAM S'
p291
(dp292
g3
F111.0
sg4
F0.0
sg5
F53122.0
sg6
F0.0
sg7
I00
sg8
F0.0
sg9
S'adam.umanoff@enron.com'
p293
sg11
F12.0
sg12
F0.0
sg13
F0.0
sg14
F41.0
sg15
F0.0
sg16
F18.0
sg17
F0.0
sg18
F0.0
sg19
F788750.0
sg20
F0.0
sg21
F0.0
sg22
F0.0
sg23
F288589.0
sg24
F1130461.0
sg25
F0.0
ssS'KEAN STEVEN J'
p294
(dp295
g3
F12754.0
sg4
F0.0
sg5
F41953.0
sg6
F0.03034342167163243
sg7
I00
sg8
F300000.0
sg9
S'steven.kean@enron.com'
p296
sg11
F140.0
sg12
F0.0
sg13
F0.0
sg14
F3639.0
sg15
F0.0
sg16
F6759.0
sg17
F1231.0
sg18
F0.0
sg19
F1000000.0
sg20
F6153642.0
sg21
F387.0
sg22
F4131594.0
sg23
F404338.0
sg24
F1747522.0
sg25
F2022048.0
ssS'FOWLER PEGGY'
p297
(dp298
g3
F517.0
sg4
F0.0
sg5
F0.0
sg6
F0.0
sg7
I00
sg8
F0.0
sg9
S'kulvinder.fowler@enron.com'
p299
sg11
F0.0
sg12
F0.0
sg13
F0.0
sg14
F10.0
sg15
F0.0
sg16
F36.0
sg17
F0.0
sg18
F0.0
sg19
F0.0
sg20
F1884748.0
sg21
F0.0
sg22
F560170.0
sg23
F0.0
sg24
F0.0
sg25
F1324578.0
ssS'WASAFF GEORGE'
p300
(dp301
g3
F400.0
sg4
F831299.0
sg5
F0.0
sg6
F0.0175
sg7
I00
sg8
F200000.0
sg9
S'george.wasaff@enron.com'
p302
sg11
F22.0
sg12
F-583325.0
sg13
F0.0
sg14
F337.0
sg15
F0.0
sg16
F30.0
sg17
F1425.0
sg18
F0.0
sg19
F325000.0
sg20
F2056427.0
sg21
F7.0
sg22
F388167.0
sg23
F259996.0
sg24
F1034395.0
sg25
F1668260.0
ssS'WHITE JR THOMAS E'
p303
(dp304
g3
F0.0
sg4
F0.0
sg5
F81353.0
sg6
F0.0
sg7
I00
sg8
F0.0
sg9
S'thomas.white@enron.com'
p305
sg11
F0.0
sg12
F0.0
sg13
F0.0
sg14
F0.0
sg15
F0.0
sg16
F0.0
sg17
F1085463.0
sg18
F0.0
sg19
F450000.0
sg20
F15144123.0
sg21
F0.0
sg22
F13847074.0
sg23
F317543.0
sg24
F1934359.0
sg25
F1297049.0
ssS'CHRISTODOULOU DIOMEDES'
p306
(dp307
g3
F0.0
sg4
F0.0
sg5
F0.0
sg6
F0.0
sg7
I00
sg8
F0.0
sg9
S'diomedes.christodoulou@enron.com'
p308
sg11
F0.0
sg12
F0.0
sg13
F0.0
sg14
F0.0
sg15
F0.0
sg16
F0.0
sg17
F0.0
sg18
F0.0
sg19
F0.0
sg20
F6077885.0
sg21
F0.0
sg22
F950730.0
sg23
F0.0
sg24
F0.0
sg25
F5127155.0
ssS'ALLEN PHILLIP K'
p309
(dp310
g3
F2902.0
sg4
F2869717.0
sg5
F13868.0
sg6
F0.022398345968297727
sg7
I00
sg8
F304805.0
sg9
S'phillip.allen@enron.com'
p311
sg11
F47.0
sg12
F-3081055.0
sg13
F-126027.0
sg14
F1407.0
sg15
F0.0
sg16
F2195.0
sg17
F152.0
sg18
F0.0
sg19
F4175000.0
sg20
F1729541.0
sg21
F65.0
sg22
F126027.0
sg23
F201955.0
sg24
F4484442.0
sg25
F1729541.0
ssS'SHARP VICTORIA T'
p312
(dp313
g3
F3136.0
sg4
F187469.0
sg5
F116337.0
sg6
F0.001913265306122449
sg7
I00
sg8
F422158.0
sg9
S'vicki.sharp@enron.com'
p314
sg11
F24.0
sg12
F0.0
sg13
F0.0
sg14
F2477.0
sg15
F0.0
sg16
F136.0
sg17
F2401.0
sg18
F0.0
sg19
F600000.0
sg20
F494136.0
sg21
F6.0
sg22
F213063.0
sg23
F248146.0
sg24
F1576511.0
sg25
F281073.0
ssS'JAEDICKE ROBERT'
p315
(dp316
g3
F0.0
sg4
F0.0
sg5
F0.0
sg6
F0.0
sg7
I00
sg8
F0.0
sg9
I0
sg11
F0.0
sg12
F-25000.0
sg13
F-44093.0
sg14
F0.0
sg15
F0.0
sg16
F0.0
sg17
F0.0
sg18
F108750.0
sg19
F0.0
sg20
F431750.0
sg21
F0.0
sg22
F44093.0
sg23
F0.0
sg24
F83750.0
sg25
F431750.0
ssS'WINOKUR JR. HERBERT S'
p317
(dp318
g3
F0.0
sg4
F0.0
sg5
F1413.0
sg6
F0.0
sg7
I00
sg8
F0.0
sg9
I0
sg11
F0.0
sg12
F-25000.0
sg13
F0.0
sg14
F0.0
sg15
F0.0
sg16
F0.0
sg17
F0.0
sg18
F108579.0
sg19
F0.0
sg20
F0.0
sg21
F0.0
sg22
F0.0
sg23
F0.0
sg24
F84992.0
sg25
F0.0
ssS'BROWN MICHAEL'
p319
(dp320
g3
F1486.0
sg4
F0.0
sg5
F49288.0
sg6
F0.0006729475100942127
sg7
I00
sg8
F0.0
sg9
S'michael.brown@enron.com'
p321
sg11
F13.0
sg12
F0.0
sg13
F0.0
sg14
F761.0
sg15
F0.0
sg16
F41.0
sg17
F0.0
sg18
F0.0
sg19
F0.0
sg20
F0.0
sg21
F1.0
sg22
F0.0
sg23
F0.0
sg24
F49288.0
sg25
F0.0
ssS'MCCLELLAN GEORGE'
p322
(dp323
g3
F1744.0
sg4
F0.0
sg5
F228763.0
sg6
F0.0
sg7
I00
sg8
F0.0
sg9
S'george.mcclellan@enron.com'
p324
sg11
F52.0
sg12
F-125000.0
sg13
F0.0
sg14
F1469.0
sg15
F0.0
sg16
F49.0
sg17
F51587.0
sg18
F0.0
sg19
F900000.0
sg20
F947861.0
sg21
F0.0
sg22
F441096.0
sg23
F263413.0
sg24
F1318763.0
sg25
F506765.0
ssS'HUGHES JAMES A'
p325
(dp326
g3
F719.0
sg4
F0.0
sg5
F0.0
sg6
F0.006954102920723227
sg7
I00
sg8
F0.0
sg9
S'james.hughes@enron.com'
p327
sg11
F35.0
sg12
F0.0
sg13
F0.0
sg14
F589.0
sg15
F0.0
sg16
F34.0
sg17
F0.0
sg18
F0.0
sg19
F0.0
sg20
F1118394.0
sg21
F5.0
sg22
F363428.0
sg23
F0.0
sg24
F0.0
sg25
F754966.0
ssS'REYNOLDS LAWRENCE'
p328
(dp329
g3
F0.0
sg4
F51365.0
sg5
F8409.0
sg6
F0.0
sg7
I00
sg8
F156250.0
sg9
I0
sg11
F0.0
sg12
F-200000.0
sg13
F-140264.0
sg14
F0.0
sg15
F0.0
sg16
F0.0
sg17
F202052.0
sg18
F0.0
sg19
F100000.0
sg20
F4221891.0
sg21
F0.0
sg22
F201483.0
sg23
F76399.0
sg24
F394475.0
sg25
F4160672.0
ssS'PICKERING MARK R'
p330
(dp331
g3
F898.0
sg4
F0.0
sg5
F31653.0
sg6
F0.0
sg7
I00
sg8
F0.0
sg9
S'mark.pickering@enron.com'
p332
sg11
F7.0
sg12
F0.0
sg13
F0.0
sg14
F728.0
sg15
F400000.0
sg16
F67.0
sg17
F0.0
sg18
F0.0
sg19
F300000.0
sg20
F28798.0
sg21
F0.0
sg22
F0.0
sg23
F655037.0
sg24
F1386690.0
sg25
F28798.0
ssS'BHATNAGAR SANJAY'
p333
(dp334
g3
F523.0
sg4
F0.0
sg5
F0.0
sg6
F0.0019120458891013384
sg7
I00
sg8
F0.0
sg9
S'sanjay.bhatnagar@enron.com'
p335
sg11
F0.0
sg12
F0.0
sg13
F15456290.0
sg14
F463.0
sg15
F0.0
sg16
F29.0
sg17
F137864.0
sg18
F137864.0
sg19
F0.0
sg20
F0.0
sg21
F1.0
sg22
F-2604490.0
sg23
F0.0
sg24
F15456290.0
sg25
F2604490.0
ssS'CARTER REBECCA C'
p336
(dp337
g3
F312.0
sg4
F0.0
sg5
F0.0
sg6
F0.022435897435897436
sg7
I00
sg8
F75000.0
sg9
S'rebecca.carter@enron.com'
p338
sg11
F29.0
sg12
F-159792.0
sg13
F-307301.0
sg14
F196.0
sg15
F0.0
sg16
F15.0
sg17
F540.0
sg18
F0.0
sg19
F300000.0
sg20
F0.0
sg21
F7.0
sg22
F307301.0
sg23
F261809.0
sg24
F477557.0
sg25
F0.0
ssS'BUCHANAN HAROLD G'
p339
(dp340
g3
F1088.0
sg4
F0.0
sg5
F600.0
sg6
F0.0
sg7
I00
sg8
F304805.0
sg9
S'john.buchanan@enron.com'
p341
sg11
F0.0
sg12
F0.0
sg13
F0.0
sg14
F23.0
sg15
F0.0
sg16
F125.0
sg17
F1215.0
sg18
F0.0
sg19
F500000.0
sg20
F1014505.0
sg21
F0.0
sg22
F189041.0
sg23
F248017.0
sg24
F1054637.0
sg25
F825464.0
ssS'YEAP SOON'
p342
(dp343
g3
F0.0
sg4
F0.0
sg5
F55097.0
sg6
F0.0
sg7
I00
sg8
F0.0
sg9
I0
sg11
F0.0
sg12
F0.0
sg13
F0.0
sg14
F0.0
sg15
F0.0
sg16
F0.0
sg17
F0.0
sg18
F0.0
sg19
F0.0
sg20
F192758.0
sg21
F0.0
sg22
F0.0
sg23
F0.0
sg24
F55097.0
sg25
F192758.0
ssS'MURRAY JULIA H'
p344
(dp345
g3
F2192.0
sg4
F0.0
sg5
F57580.0
sg6
F0.0009124087591240876
sg7
I00
sg8
F125000.0
sg9
S'julia.murray@enron.com'
p346
sg11
F11.0
sg12
F0.0
sg13
F0.0
sg14
F395.0
sg15
F0.0
sg16
F45.0
sg17
F330.0
sg18
F0.0
sg19
F400000.0
sg20
F597461.0
sg21
F2.0
sg22
F196983.0
sg23
F229284.0
sg24
F812194.0
sg25
F400478.0
ssS'GARLAND C KEVIN'
p347
(dp348
g3
F209.0
sg4
F0.0
sg5
F48405.0
sg6
F0.1291866028708134
sg7
I00
sg8
F375304.0
sg9
S'kevin.garland@enron.com'
p349
sg11
F10.0
sg12
F0.0
sg13
F0.0
sg14
F178.0
sg15
F0.0
sg16
F44.0
sg17
F60814.0
sg18
F0.0
sg19
F850000.0
sg20
F896153.0
sg21
F27.0
sg22
F259907.0
sg23
F231946.0
sg24
F1566469.0
sg25
F636246.0
ssS'DODSON KEITH'
p350
(dp351
g3
F176.0
sg4
F0.0
sg5
F28164.0
sg6
F0.017045454545454544
sg7
I00
sg8
F0.0
sg9
S'keith.dodson@enron.com'
p352
sg11
F10.0
sg12
F0.0
sg13
F0.0
sg14
F114.0
sg15
F0.0
sg16
F14.0
sg17
F774.0
sg18
F0.0
sg19
F70000.0
sg20
F0.0
sg21
F3.0
sg22
F0.0
sg23
F221003.0
sg24
F319941.0
sg25
F0.0
ssS'YEAGER F SCOTT'
p353
(dp354
g3
F0.0
sg4
F0.0
sg5
F53947.0
sg6
F0.0
sg7
I01
sg8
F0.0
sg9
S'scott.yeager@enron.com'
p355
sg11
F0.0
sg12
F0.0
sg13
F0.0
sg14
F0.0
sg15
F0.0
sg16
F0.0
sg17
F147950.0
sg18
F0.0
sg19
F0.0
sg20
F11884758.0
sg21
F0.0
sg22
F3576206.0
sg23
F158403.0
sg24
F360300.0
sg25
F8308552.0
ssS'HIRKO JOSEPH'
p356
(dp357
g3
F0.0
sg4
F10259.0
sg5
F77978.0
sg6
F0.0
sg7
I01
sg8
F0.0
sg9
S'joe.hirko@enron.com'
p358
sg11
F0.0
sg12
F0.0
sg13
F0.0
sg14
F0.0
sg15
F0.0
sg16
F0.0
sg17
F2856.0
sg18
F0.0
sg19
F0.0
sg20
F30766064.0
sg21
F0.0
sg22
F0.0
sg23
F0.0
sg24
F91093.0
sg25
F30766064.0
ssS'DIETRICH JANET R'
p359
(dp360
g3
F2572.0
sg4
F0.0
sg5
F3475.0
sg6
F0.005443234836702955
sg7
I00
sg8
F556416.0
sg9
S'janet.dietrich@enron.com'
p361
sg11
F305.0
sg12
F0.0
sg13
F0.0
sg14
F1902.0
sg15
F0.0
sg16
F63.0
sg17
F473.0
sg18
F0.0
sg19
F600000.0
sg20
F1865087.0
sg21
F14.0
sg22
F315068.0
sg23
F250100.0
sg24
F1410464.0
sg25
F1550019.0
ssS'DERRICK JR. JAMES V'
p362
(dp363
g3
F2181.0
sg4
F0.0
sg5
F51124.0
sg6
F0.009170105456212746
sg7
I00
sg8
F484000.0
sg9
S'james.derrick@enron.com'
p364
sg11
F64.0
sg12
F-1284000.0
sg13
F-1787380.0
sg14
F1401.0
sg15
F0.0
sg16
F909.0
sg17
F7482.0
sg18
F0.0
sg19
F800000.0
sg20
F8831913.0
sg21
F20.0
sg22
F1787380.0
sg23
F492375.0
sg24
F550981.0
sg25
F8831913.0
ssS'FREVERT MARK A'
p365
(dp366
g3
F3275.0
sg4
F6426990.0
sg5
F86987.0
sg6
F0.00183206106870229
sg7
I00
sg8
F1617011.0
sg9
S'mark.frevert@enron.com'
p367
sg11
F242.0
sg12
F-3367011.0
sg13
F0.0
sg14
F2979.0
sg15
F2000000.0
sg16
F21.0
sg17
F7427621.0
sg18
F0.0
sg19
F2000000.0
sg20
F14622185.0
sg21
F6.0
sg22
F4188667.0
sg23
F1060932.0
sg24
F17252530.0
sg25
F10433518.0
ssS'PAI LOU L'
p368
(dp369
g3
F0.0
sg4
F0.0
sg5
F32047.0
sg6
F0.0
sg7
I00
sg8
F0.0
sg9
S'lou.pai@enron.com'
p370
sg11
F0.0
sg12
F0.0
sg13
F0.0
sg14
F0.0
sg15
F0.0
sg16
F0.0
sg17
F1829457.0
sg18
F0.0
sg19
F1000000.0
sg20
F23817930.0
sg21
F0.0
sg22
F8453763.0
sg23
F261879.0
sg24
F3123383.0
sg25
F15364167.0
ssS'HAYSLETT RODERICK J'
p371
(dp372
g3
F2649.0
sg4
F0.0
sg5
F0.0
sg6
F0.014345035862589657
sg7
I00
sg8
F0.0
sg9
S'rod.hayslett@enron.com'
p373
sg11
F35.0
sg12
F0.0
sg13
F0.0
sg14
F571.0
sg15
F0.0
sg16
F1061.0
sg17
F0.0
sg18
F0.0
sg19
F0.0
sg20
F346663.0
sg21
F38.0
sg22
F346663.0
sg23
F0.0
sg24
F0.0
sg25
F0.0
ssS'BAY FRANKLIN R'
p374
(dp375
g3
F0.0
sg4
F260455.0
sg5
F129142.0
sg6
F0.0
sg7
I00
sg8
F0.0
sg9
S'frank.bay@enron.com'
p376
sg11
F0.0
sg12
F-201641.0
sg13
F-82782.0
sg14
F0.0
sg15
F0.0
sg16
F0.0
sg17
F69.0
sg18
F0.0
sg19
F400000.0
sg20
F63014.0
sg21
F0.0
sg22
F145796.0
sg23
F239671.0
sg24
F827696.0
sg25
F0.0
ssS'MCCARTY DANNY J'
p377
(dp378
g3
F1433.0
sg4
F0.0
sg5
F0.0
sg6
F0.0013956734124214933
sg7
I00
sg8
F0.0
sg9
S'danny.mccarty@enron.com'
p379
sg11
F25.0
sg12
F0.0
sg13
F0.0
sg14
F508.0
sg15
F0.0
sg16
F215.0
sg17
F0.0
sg18
F0.0
sg19
F0.0
sg20
F758931.0
sg21
F2.0
sg22
F94556.0
sg23
F0.0
sg24
F0.0
sg25
F664375.0
ssS'FUGH JOHN L'
p380
(dp381
g3
F0.0
sg4
F50591.0
sg5
F0.0
sg6
F0.0
sg7
I00
sg8
F0.0
sg9
I0
sg11
F0.0
sg12
F0.0
sg13
F0.0
sg14
F0.0
sg15
F0.0
sg16
F0.0
sg17
F0.0
sg18
F0.0
sg19
F0.0
sg20
F176378.0
sg21
F0.0
sg22
F0.0
sg23
F0.0
sg24
F50591.0
sg25
F176378.0
ssS'SCRIMSHAW MATTHEW'
p382
(dp383
g3
F0.0
sg4
F0.0
sg5
F0.0
sg6
F0.0
sg7
I00
sg8
F0.0
sg9
S'matthew.scrimshaw@enron.com'
p384
sg11
F0.0
sg12
F0.0
sg13
F0.0
sg14
F0.0
sg15
F0.0
sg16
F0.0
sg17
F0.0
sg18
F0.0
sg19
F0.0
sg20
F759557.0
sg21
F0.0
sg22
F0.0
sg23
F0.0
sg24
F0.0
sg25
F759557.0
ssS'KOENIG MARK E'
p385
(dp386
g3
F2374.0
sg4
F0.0
sg5
F127017.0
sg6
F0.006318449873631003
sg7
I01
sg8
F300000.0
sg9
S'mark.koenig@enron.com'
p387
sg11
F53.0
sg12
F0.0
sg13
F0.0
sg14
F2271.0
sg15
F0.0
sg16
F61.0
sg17
F150458.0
sg18
F0.0
sg19
F700000.0
sg20
F1920055.0
sg21
F15.0
sg22
F1248318.0
sg23
F309946.0
sg24
F1587421.0
sg25
F671737.0
ssS'SAVAGE FRANK'
p388
(dp389
g3
F0.0
sg4
F0.0
sg5
F0.0
sg6
F0.0
sg7
I00
sg8
F0.0
sg9
I0
sg11
F0.0
sg12
F-121284.0
sg13
F0.0
sg14
F0.0
sg15
F0.0
sg16
F0.0
sg17
F0.0
sg18
F125034.0
sg19
F0.0
sg20
F0.0
sg21
F0.0
sg22
F0.0
sg23
F0.0
sg24
F3750.0
sg25
F0.0
ssS'IZZO LAWRENCE L'
p390
(dp391
g3
F496.0
sg4
F0.0
sg5
F28093.0
sg6
F0.010080645161290322
sg7
I00
sg8
F312500.0
sg9
S'larry.izzo@enron.com'
p392
sg11
F28.0
sg12
F0.0
sg13
F0.0
sg14
F437.0
sg15
F0.0
sg16
F19.0
sg17
F1553729.0
sg18
F0.0
sg19
F0.0
sg20
F5819980.0
sg21
F5.0
sg22
F3654808.0
sg23
F85274.0
sg24
F1979596.0
sg25
F2165172.0
ssS'TILNEY ELIZABETH A'
p393
(dp394
g3
F460.0
sg4
F0.0
sg5
F0.0
sg6
F0.02391304347826087
sg7
I00
sg8
F275000.0
sg9
S'elizabeth.tilney@enron.com'
p395
sg11
F10.0
sg12
F-575000.0
sg13
F0.0
sg14
F379.0
sg15
F0.0
sg16
F19.0
sg17
F152055.0
sg18
F0.0
sg19
F300000.0
sg20
F1168042.0
sg21
F11.0
sg22
F576792.0
sg23
F247338.0
sg24
F399393.0
sg25
F591250.0
ssS'MARTIN AMANDA K'
p396
(dp397
g3
F1522.0
sg4
F85430.0
sg5
F8211.0
sg6
F0.0
sg7
I00
sg8
F5145434.0
sg9
S'a..martin@enron.com'
p398
sg11
F8.0
sg12
F0.0
sg13
F0.0
sg14
F477.0
sg15
F0.0
sg16
F230.0
sg17
F2818454.0
sg18
F0.0
sg19
F0.0
sg20
F2070306.0
sg21
F0.0
sg22
F0.0
sg23
F349487.0
sg24
F8407016.0
sg25
F2070306.0
ssS'BUY RICHARD B'
p399
(dp400
g3
F3523.0
sg4
F649584.0
sg5
F0.0
sg6
F0.02015327845586148
sg7
I00
sg8
F769862.0
sg9
S'rick.buy@enron.com'
p401
sg11
F156.0
sg12
F-694862.0
sg13
F0.0
sg14
F2333.0
sg15
F0.0
sg16
F1053.0
sg17
F400572.0
sg18
F0.0
sg19
F900000.0
sg20
F3444470.0
sg21
F71.0
sg22
F901657.0
sg23
F330546.0
sg24
F2355702.0
sg25
F2542813.0
ssS'CAUSEY RICHARD A'
p402
(dp403
g3
F1892.0
sg4
F0.0
sg5
F30674.0
sg6
F0.006342494714587738
sg7
I01
sg8
F350000.0
sg9
S'richard.causey@enron.com'
p404
sg11
F58.0
sg12
F-235000.0
sg13
F0.0
sg14
F1585.0
sg15
F0.0
sg16
F49.0
sg17
F307895.0
sg18
F0.0
sg19
F1000000.0
sg20
F2502063.0
sg21
F12.0
sg22
F2502063.0
sg23
F415189.0
sg24
F1868758.0
sg25
F0.0
ssS'TAYLOR MITCHELL S'
p405
(dp406
g3
F533.0
sg4
F227449.0
sg5
F0.0
sg6
F0.0
sg7
I00
sg8
F0.0
sg9
S'mitchell.taylor@enron.com'
p407
sg11
F0.0
sg12
F0.0
sg13
F0.0
sg14
F300.0
sg15
F0.0
sg16
F29.0
sg17
F0.0
sg18
F0.0
sg19
F600000.0
sg20
F3745048.0
sg21
F0.0
sg22
F563798.0
sg23
F265214.0
sg24
F1092663.0
sg25
F3181250.0
ssS'DONAHUE JR JEFFREY M'
p408
(dp409
g3
F865.0
sg4
F0.0
sg5
F96268.0
sg6
F0.012716763005780347
sg7
I00
sg8
F0.0
sg9
S'jeff.donahue@enron.com'
p410
sg11
F188.0
sg12
F-300000.0
sg13
F0.0
sg14
F772.0
sg15
F0.0
sg16
F22.0
sg17
F891.0
sg18
F0.0
sg19
F800000.0
sg20
F1080988.0
sg21
F11.0
sg22
F315068.0
sg23
F278601.0
sg24
F875760.0
sg25
F765920.0
ssS'GLISAN JR BEN F'
p411
(dp412
g3
F873.0
sg4
F0.0
sg5
F125978.0
sg6
F0.006872852233676976
sg7
I01
sg8
F71023.0
sg9
S'ben.glisan@enron.com'
p413
sg11
F52.0
sg12
F0.0
sg13
F0.0
sg14
F874.0
sg15
F0.0
sg16
F16.0
sg17
F200308.0
sg18
F0.0
sg19
F600000.0
sg20
F778546.0
sg21
F6.0
sg22
F393818.0
sg23
F274975.0
sg24
F1272284.0
sg25
F384728.0
ss.